target datalayout = "e-m:e-p270:32:32-p271:32:32-p272:64:64-i64:64-i128:128-f80:128-n8:16:32:64-S128"
target triple = "x86_64-pc-linux-gnu"

%struct.FunctionCallInfoBaseData = type { ptr, ptr, ptr, i32, i8, i16, [0 x %struct.NullableDatum] }
%struct.NullableDatum = type { i64, i8 }
%struct.varattrib_1b = type { i8, [0 x i8] }
%struct.anon = type { i32, [0 x i8] }
%struct.inet_struct = type { i8, i8, [16 x i8] }

@.str.1 = private unnamed_addr constant [10 x i8] c"network.c\00", align 1
@.str.5 = private unnamed_addr constant [32 x i8] c"could not format cidr value: %m\00", align 1
@__func__.cidr_abbrev = private unnamed_addr constant [12 x i8] c"cidr_abbrev\00", align 1

; Function Attrs: inlinehint nounwind uwtable
define internal ptr @DatumGetPointer(i64 noundef %0) #2 {
  %2 = alloca i64, align 8
  store i64 %0, ptr %2, align 8
  %3 = load i64, ptr %2, align 8
  %4 = inttoptr i64 %3 to ptr
  ret ptr %4
}

; Function Attrs: inlinehint nounwind uwtable
define internal i64 @PointerGetDatum(ptr noundef %0) #2 {
  %2 = alloca ptr, align 8
  store ptr %0, ptr %2, align 8
  %3 = load ptr, ptr %2, align 8
  %4 = ptrtoint ptr %3 to i64
  ret i64 %4
}

; Function Attrs: inlinehint nounwind uwtable
define internal ptr @DatumGetInetPP(i64 noundef %0) #2 {
  %2 = alloca i64, align 8
  store i64 %0, ptr %2, align 8
  %3 = load i64, ptr %2, align 8
  %4 = call ptr @DatumGetPointer(i64 noundef %3)
  %5 = call ptr @pg_detoast_datum_packed(ptr noundef %4)
  ret ptr %5
}

; Function Attrs: nounwind uwtable
define dso_local i64 @cidr_abbrev(ptr noundef %0) #0 {
  %2 = alloca ptr, align 8
  %3 = alloca ptr, align 8
  %4 = alloca ptr, align 8
  %5 = alloca [50 x i8], align 16
  store ptr %0, ptr %2, align 8
  call void @llvm.lifetime.start.p0(i64 8, ptr %3) #8
  %6 = load ptr, ptr %2, align 8
  %7 = getelementptr inbounds nuw %struct.FunctionCallInfoBaseData, ptr %6, i32 0, i32 6
  %8 = getelementptr inbounds [0 x %struct.NullableDatum], ptr %7, i64 0, i64 0
  %9 = getelementptr inbounds nuw %struct.NullableDatum, ptr %8, i32 0, i32 0
  %10 = load i64, ptr %9, align 8
  %11 = call ptr @DatumGetInetPP(i64 noundef %10)
  store ptr %11, ptr %3, align 8
  call void @llvm.lifetime.start.p0(i64 8, ptr %4) #8
  call void @llvm.lifetime.start.p0(i64 50, ptr %5) #8
  %12 = load ptr, ptr %3, align 8
  %13 = getelementptr inbounds nuw %struct.varattrib_1b, ptr %12, i32 0, i32 0
  %14 = load i8, ptr %13, align 1
  %15 = zext i8 %14 to i32
  %16 = and i32 %15, 1
  %17 = icmp eq i32 %16, 1
  br i1 %17, label %18, label %22

18:                                               ; preds = %1
  %19 = load ptr, ptr %3, align 8
  %20 = getelementptr inbounds nuw %struct.varattrib_1b, ptr %19, i32 0, i32 1
  %21 = getelementptr inbounds [0 x i8], ptr %20, i64 0, i64 0
  br label %26

22:                                               ; preds = %1
  %23 = load ptr, ptr %3, align 8
  %24 = getelementptr inbounds nuw %struct.anon, ptr %23, i32 0, i32 1
  %25 = getelementptr inbounds [0 x i8], ptr %24, i64 0, i64 0
  br label %26

26:                                               ; preds = %22, %18
  %27 = phi ptr [ %21, %18 ], [ %25, %22 ]
  %28 = getelementptr inbounds nuw %struct.inet_struct, ptr %27, i32 0, i32 0
  %29 = load i8, ptr %28, align 1
  %30 = zext i8 %29 to i32
  %31 = load ptr, ptr %3, align 8
  %32 = getelementptr inbounds nuw %struct.varattrib_1b, ptr %31, i32 0, i32 0
  %33 = load i8, ptr %32, align 1
  %34 = zext i8 %33 to i32
  %35 = and i32 %34, 1
  %36 = icmp eq i32 %35, 1
  br i1 %36, label %37, label %41

37:                                               ; preds = %26
  %38 = load ptr, ptr %3, align 8
  %39 = getelementptr inbounds nuw %struct.varattrib_1b, ptr %38, i32 0, i32 1
  %40 = getelementptr inbounds [0 x i8], ptr %39, i64 0, i64 0
  br label %45

41:                                               ; preds = %26
  %42 = load ptr, ptr %3, align 8
  %43 = getelementptr inbounds nuw %struct.anon, ptr %42, i32 0, i32 1
  %44 = getelementptr inbounds [0 x i8], ptr %43, i64 0, i64 0
  br label %45

45:                                               ; preds = %41, %37
  %46 = phi ptr [ %40, %37 ], [ %44, %41 ]
  %47 = getelementptr inbounds nuw %struct.inet_struct, ptr %46, i32 0, i32 2
  %48 = getelementptr inbounds [16 x i8], ptr %47, i64 0, i64 0
  %49 = load ptr, ptr %3, align 8
  %50 = getelementptr inbounds nuw %struct.varattrib_1b, ptr %49, i32 0, i32 0
  %51 = load i8, ptr %50, align 1
  %52 = zext i8 %51 to i32
  %53 = and i32 %52, 1
  %54 = icmp eq i32 %53, 1
  br i1 %54, label %55, label %59

55:                                               ; preds = %45
  %56 = load ptr, ptr %3, align 8
  %57 = getelementptr inbounds nuw %struct.varattrib_1b, ptr %56, i32 0, i32 1
  %58 = getelementptr inbounds [0 x i8], ptr %57, i64 0, i64 0
  br label %63

59:                                               ; preds = %45
  %60 = load ptr, ptr %3, align 8
  %61 = getelementptr inbounds nuw %struct.anon, ptr %60, i32 0, i32 1
  %62 = getelementptr inbounds [0 x i8], ptr %61, i64 0, i64 0
  br label %63

63:                                               ; preds = %59, %55
  %64 = phi ptr [ %58, %55 ], [ %62, %59 ]
  %65 = getelementptr inbounds nuw %struct.inet_struct, ptr %64, i32 0, i32 1
  %66 = load i8, ptr %65, align 1
  %67 = zext i8 %66 to i32
  %68 = getelementptr inbounds [50 x i8], ptr %5, i64 0, i64 0
  %69 = call ptr @pg_inet_cidr_ntop(i32 noundef %30, ptr noundef %48, i32 noundef %67, ptr noundef %68, i64 noundef 50)
  store ptr %69, ptr %4, align 8
  %70 = load ptr, ptr %4, align 8
  %71 = icmp eq ptr %70, null
  br i1 %71, label %72, label %84

72:                                               ; preds = %63
  br label %73

73:                                               ; preds = %72
  br i1 true, label %74, label %76

74:                                               ; preds = %73
  %75 = call zeroext i1 @errstart_cold(i32 noundef 21, ptr noundef null) #10
  br i1 %75, label %78, label %81

76:                                               ; preds = %73
  %77 = call zeroext i1 @errstart(i32 noundef 21, ptr noundef null)
  br i1 %77, label %78, label %81

78:                                               ; preds = %76, %74
  %79 = call i32 @errcode(i32 noundef 50462850)
  %80 = call i32 (ptr, ...) @errmsg(ptr noundef @.str.5)
  call void @errfinish(ptr noundef @.str.1, i32 noundef 1246, ptr noundef @__func__.cidr_abbrev)
  br label %81

81:                                               ; preds = %78, %76, %74
  unreachable

82:                                               ; No predecessors!
  br label %83

83:                                               ; preds = %82
  br label %84

84:                                               ; preds = %83, %63
  %85 = getelementptr inbounds [50 x i8], ptr %5, i64 0, i64 0
  %86 = call ptr @cstring_to_text(ptr noundef %85)
  %87 = call i64 @PointerGetDatum(ptr noundef %86)
  call void @llvm.lifetime.end.p0(i64 50, ptr %5) #8
  call void @llvm.lifetime.end.p0(i64 8, ptr %4) #8
  call void @llvm.lifetime.end.p0(i64 8, ptr %3) #8
  ret i64 %87
}